target datalayout = "e-m:e-p270:32:32-p271:32:32-p272:64:64-i64:64-i128:128-f80:128-n8:16:32:64-S128"
target triple = "x86_64-unknown-linux-gnu"

; Function Attrs: inlinehint mustprogress nounwind uwtable
define linkonce_odr noundef double @_ZSt3powIdiEN9__gnu_cxx9__promoteIDTplcvNS1_IT_Xsr3std12__is_integerIS2_EE7__valueEE6__typeELi0EcvNS1_IT0_Xsr3std12__is_integerIS5_EE7__valueEE6__typeELi0EEXsr3std12__is_integerIS8_EE7__valueEE6__typeES2_S5_(double noundef %__x, i32 noundef %__y) #8 comdat {
entry:
  %__x.addr = alloca double, align 8
  %__y.addr = alloca i32, align 4
  store double %__x, ptr %__x.addr, align 8, !tbaa !10
  store i32 %__y, ptr %__y.addr, align 4, !tbaa !46
  %0 = load double, ptr %__x.addr, align 8, !tbaa !10
  %1 = load i32, ptr %__y.addr, align 4, !tbaa !46
  %conv = sitofp i32 %1 to double
  %call = call double @pow(double noundef %0, double noundef %conv) #3, !tbaa !46
  ret double %call
}

; Function Attrs: mustprogress nounwind uwtable
define internal noundef double @_ZN8QuantLib12_GLOBAL__N_13f_6Edd(double noundef %_nu, double noundef %_lambda) #2 {
entry:
  %_nu.addr = alloca double, align 8
  %_lambda.addr = alloca double, align 8
  %lambda = alloca double, align 8
  %nu = alloca double, align 8
  store double %_nu, ptr %_nu.addr, align 8, !tbaa !10
  store double %_lambda, ptr %_lambda.addr, align 8, !tbaa !10
  call void @llvm.lifetime.start.p0(i64 8, ptr %lambda) #3
  %0 = load double, ptr %_lambda.addr, align 8, !tbaa !10
  store double %0, ptr %lambda, align 8, !tbaa !10
  call void @llvm.lifetime.start.p0(i64 8, ptr %nu) #3
  %1 = load double, ptr %_nu.addr, align 8, !tbaa !10
  store double %1, ptr %nu, align 8, !tbaa !10
  %2 = load double, ptr %lambda, align 8, !tbaa !10
  %call = call noundef double @_ZSt3powIdiEN9__gnu_cxx9__promoteIDTplcvNS1_IT_Xsr3std12__is_integerIS2_EE7__valueEE6__typeELi0EcvNS1_IT0_Xsr3std12__is_integerIS5_EE7__valueEE6__typeELi0EEXsr3std12__is_integerIS8_EE7__valueEE6__typeES2_S5_(double noundef %2, i32 noundef 6)
  %3 = load double, ptr %lambda, align 8, !tbaa !10
  %call1 = call noundef double @_ZSt3powIdiEN9__gnu_cxx9__promoteIDTplcvNS1_IT_Xsr3std12__is_integerIS2_EE7__valueEE6__typeELi0EcvNS1_IT0_Xsr3std12__is_integerIS5_EE7__valueEE6__typeELi0EEXsr3std12__is_integerIS8_EE7__valueEE6__typeES2_S5_(double noundef %3, i32 noundef 5)
  %mul = fmul double 6.000000e+00, %call1
  %4 = load double, ptr %nu, align 8, !tbaa !10
  %add = fadd double 1.000000e+01, %4
  %5 = call double @llvm.fmuladd.f64(double %mul, double %add, double %call)
  %6 = load double, ptr %lambda, align 8, !tbaa !10
  %call3 = call noundef double @_ZSt3powIdiEN9__gnu_cxx9__promoteIDTplcvNS1_IT_Xsr3std12__is_integerIS2_EE7__valueEE6__typeELi0EcvNS1_IT0_Xsr3std12__is_integerIS5_EE7__valueEE6__typeELi0EEXsr3std12__is_integerIS8_EE7__valueEE6__typeES2_S5_(double noundef %6, i32 noundef 4)
  %mul4 = fmul double 1.500000e+01, %call3
  %7 = load double, ptr %nu, align 8, !tbaa !10
  %8 = call double @llvm.fmuladd.f64(double 1.800000e+01, double %7, double 8.000000e+01)
  %9 = load double, ptr %nu, align 8, !tbaa !10
  %call6 = call noundef double @_ZSt3powIdiEN9__gnu_cxx9__promoteIDTplcvNS1_IT_Xsr3std12__is_integerIS2_EE7__valueEE6__typeELi0EcvNS1_IT0_Xsr3std12__is_integerIS5_EE7__valueEE6__typeELi0EEXsr3std12__is_integerIS8_EE7__valueEE6__typeES2_S5_(double noundef %9, i32 noundef 2)
  %add7 = fadd double %8, %call6
  %10 = call double @llvm.fmuladd.f64(double %mul4, double %add7, double %5)
  %11 = load double, ptr %lambda, align 8, !tbaa !10
  %call9 = call noundef double @_ZSt3powIdiEN9__gnu_cxx9__promoteIDTplcvNS1_IT_Xsr3std12__is_integerIS2_EE7__valueEE6__typeELi0EcvNS1_IT0_Xsr3std12__is_integerIS5_EE7__valueEE6__typeELi0EEXsr3std12__is_integerIS8_EE7__valueEE6__typeES2_S5_(double noundef %11, i32 noundef 3)
  %mul10 = fmul double 2.000000e+01, %call9
  %12 = load double, ptr %nu, align 8, !tbaa !10
  %13 = call double @llvm.fmuladd.f64(double 1.880000e+02, double %12, double 4.800000e+02)
  %14 = load double, ptr %nu, align 8, !tbaa !10
  %call12 = call noundef double @_ZSt3powIdiEN9__gnu_cxx9__promoteIDTplcvNS1_IT_Xsr3std12__is_integerIS2_EE7__valueEE6__typeELi0EcvNS1_IT0_Xsr3std12__is_integerIS5_EE7__valueEE6__typeELi0EEXsr3std12__is_integerIS8_EE7__valueEE6__typeES2_S5_(double noundef %14, i32 noundef 2)
  %15 = call double @llvm.fmuladd.f64(double 2.400000e+01, double %call12, double %13)
  %16 = load double, ptr %nu, align 8, !tbaa !10
  %call14 = call noundef double @_ZSt3powIdiEN9__gnu_cxx9__promoteIDTplcvNS1_IT_Xsr3std12__is_integerIS2_EE7__valueEE6__typeELi0EcvNS1_IT0_Xsr3std12__is_integerIS5_EE7__valueEE6__typeELi0EEXsr3std12__is_integerIS8_EE7__valueEE6__typeES2_S5_(double noundef %16, i32 noundef 3)
  %add15 = fadd double %15, %call14
  %17 = call double @llvm.fmuladd.f64(double %mul10, double %add15, double %10)
  %18 = load double, ptr %lambda, align 8, !tbaa !10
  %call17 = call noundef double @_ZSt3powIdiEN9__gnu_cxx9__promoteIDTplcvNS1_IT_Xsr3std12__is_integerIS2_EE7__valueEE6__typeELi0EcvNS1_IT0_Xsr3std12__is_integerIS5_EE7__valueEE6__typeELi0EEXsr3std12__is_integerIS8_EE7__valueEE6__typeES2_S5_(double noundef %18, i32 noundef 2)
  %mul18 = fmul double 1.500000e+01, %call17
  %19 = load double, ptr %nu, align 8, !tbaa !10
  %20 = call double @llvm.fmuladd.f64(double 1.232000e+03, double %19, double 1.920000e+03)
  %21 = load double, ptr %nu, align 8, !tbaa !10
  %call20 = call noundef double @_ZSt3powIdiEN9__gnu_cxx9__promoteIDTplcvNS1_IT_Xsr3std12__is_integerIS2_EE7__valueEE6__typeELi0EcvNS1_IT0_Xsr3std12__is_integerIS5_EE7__valueEE6__typeELi0EEXsr3std12__is_integerIS8_EE7__valueEE6__typeES2_S5_(double noundef %21, i32 noundef 2)
  %22 = call double @llvm.fmuladd.f64(double 2.840000e+02, double %call20, double %20)
  %23 = load double, ptr %nu, align 8, !tbaa !10
  %call22 = call noundef double @_ZSt3powIdiEN9__gnu_cxx9__promoteIDTplcvNS1_IT_Xsr3std12__is_integerIS2_EE7__valueEE6__typeELi0EcvNS1_IT0_Xsr3std12__is_integerIS5_EE7__valueEE6__typeELi0EEXsr3std12__is_integerIS8_EE7__valueEE6__typeES2_S5_(double noundef %23, i32 noundef 3)
  %24 = call double @llvm.fmuladd.f64(double 2.800000e+01, double %call22, double %22)
  %25 = load double, ptr %nu, align 8, !tbaa !10
  %call24 = call noundef double @_ZSt3powIdiEN9__gnu_cxx9__promoteIDTplcvNS1_IT_Xsr3std12__is_integerIS2_EE7__valueEE6__typeELi0EcvNS1_IT0_Xsr3std12__is_integerIS5_EE7__valueEE6__typeELi0EEXsr3std12__is_integerIS8_EE7__valueEE6__typeES2_S5_(double noundef %25, i32 noundef 4)
  %add25 = fadd double %24, %call24
  %26 = call double @llvm.fmuladd.f64(double %mul18, double %add25, double %17)
  %27 = load double, ptr %lambda, align 8, !tbaa !10
  %mul27 = fmul double 6.000000e+00, %27
  %28 = load double, ptr %nu, align 8, !tbaa !10
  %29 = call double @llvm.fmuladd.f64(double 4.384000e+03, double %28, double 3.840000e+03)
  %30 = load double, ptr %nu, align 8, !tbaa !10
  %call29 = call noundef double @_ZSt3powIdiEN9__gnu_cxx9__promoteIDTplcvNS1_IT_Xsr3std12__is_integerIS2_EE7__valueEE6__typeELi0EcvNS1_IT0_Xsr3std12__is_integerIS5_EE7__valueEE6__typeELi0EEXsr3std12__is_integerIS8_EE7__valueEE6__typeES2_S5_(double noundef %30, i32 noundef 2)
  %31 = call double @llvm.fmuladd.f64(double 1.800000e+03, double %call29, double %29)
  %32 = load double, ptr %nu, align 8, !tbaa !10
  %call31 = call noundef double @_ZSt3powIdiEN9__gnu_cxx9__promoteIDTplcvNS1_IT_Xsr3std12__is_integerIS2_EE7__valueEE6__typeELi0EcvNS1_IT0_Xsr3std12__is_integerIS5_EE7__valueEE6__typeELi0EEXsr3std12__is_integerIS8_EE7__valueEE6__typeES2_S5_(double noundef %32, i32 noundef 3)
  %33 = call double @llvm.fmuladd.f64(double 3.400000e+02, double %call31, double %31)
  %34 = load double, ptr %nu, align 8, !tbaa !10
  %call33 = call noundef double @_ZSt3powIdiEN9__gnu_cxx9__promoteIDTplcvNS1_IT_Xsr3std12__is_integerIS2_EE7__valueEE6__typeELi0EcvNS1_IT0_Xsr3std12__is_integerIS5_EE7__valueEE6__typeELi0EEXsr3std12__is_integerIS8_EE7__valueEE6__typeES2_S5_(double noundef %34, i32 noundef 4)
  %35 = call double @llvm.fmuladd.f64(double 3.000000e+01, double %call33, double %33)
  %36 = load double, ptr %nu, align 8, !tbaa !10
  %call35 = call noundef double @_ZSt3powIdiEN9__gnu_cxx9__promoteIDTplcvNS1_IT_Xsr3std12__is_integerIS2_EE7__valueEE6__typeELi0EcvNS1_IT0_Xsr3std12__is_integerIS5_EE7__valueEE6__typeELi0EEXsr3std12__is_integerIS8_EE7__valueEE6__typeES2_S5_(double noundef %36, i32 noundef 5)
  %add36 = fadd double %35, %call35
  %37 = call double @llvm.fmuladd.f64(double %mul27, double %add36, double %26)
  %38 = load double, ptr %nu, align 8, !tbaa !10
  %39 = load double, ptr %nu, align 8, !tbaa !10
  %40 = call double @llvm.fmuladd.f64(double 4.384000e+03, double %39, double 3.840000e+03)
  %41 = load double, ptr %nu, align 8, !tbaa !10
  %call39 = call noundef double @_ZSt3powIdiEN9__gnu_cxx9__promoteIDTplcvNS1_IT_Xsr3std12__is_integerIS2_EE7__valueEE6__typeELi0EcvNS1_IT0_Xsr3std12__is_integerIS5_EE7__valueEE6__typeELi0EEXsr3std12__is_integerIS8_EE7__valueEE6__typeES2_S5_(double noundef %41, i32 noundef 2)
  %42 = call double @llvm.fmuladd.f64(double 1.800000e+03, double %call39, double %40)
  %43 = load double, ptr %nu, align 8, !tbaa !10
  %call41 = call noundef double @_ZSt3powIdiEN9__gnu_cxx9__promoteIDTplcvNS1_IT_Xsr3std12__is_integerIS2_EE7__valueEE6__typeELi0EcvNS1_IT0_Xsr3std12__is_integerIS5_EE7__valueEE6__typeELi0EEXsr3std12__is_integerIS8_EE7__valueEE6__typeES2_S5_(double noundef %43, i32 noundef 3)
  %44 = call double @llvm.fmuladd.f64(double 3.400000e+02, double %call41, double %42)
  %45 = load double, ptr %nu, align 8, !tbaa !10
  %call43 = call noundef double @_ZSt3powIdiEN9__gnu_cxx9__promoteIDTplcvNS1_IT_Xsr3std12__is_integerIS2_EE7__valueEE6__typeELi0EcvNS1_IT0_Xsr3std12__is_integerIS5_EE7__valueEE6__typeELi0EEXsr3std12__is_integerIS8_EE7__valueEE6__typeES2_S5_(double noundef %45, i32 noundef 4)
  %46 = call double @llvm.fmuladd.f64(double 3.000000e+01, double %call43, double %44)
  %47 = load double, ptr %nu, align 8, !tbaa !10
  %call45 = call noundef double @_ZSt3powIdiEN9__gnu_cxx9__promoteIDTplcvNS1_IT_Xsr3std12__is_integerIS2_EE7__valueEE6__typeELi0EcvNS1_IT0_Xsr3std12__is_integerIS5_EE7__valueEE6__typeELi0EEXsr3std12__is_integerIS8_EE7__valueEE6__typeES2_S5_(double noundef %47, i32 noundef 5)
  %add46 = fadd double %46, %call45
  %48 = call double @llvm.fmuladd.f64(double %38, double %add46, double %37)
  call void @llvm.lifetime.end.p0(i64 8, ptr %nu) #3
  call void @llvm.lifetime.end.p0(i64 8, ptr %lambda) #3
  ret double %48
}