; Function Attrs: mustprogress nofree nounwind willreturn memory(write) uwtable
define internal noundef double @_ZN8QuantLib12_GLOBAL__N_13f_6Edd(double noundef %_nu, double noundef %_lambda) #13 {
entry:
  %call.i = tail call noundef double @pow(double noundef %_lambda, double noundef 6.000000e+00) #35, !tbaa !57
  %call.i26 = tail call noundef double @pow(double noundef %_lambda, double noundef 5.000000e+00) #35, !tbaa !57
  %mul = fmul double %call.i26, 6.000000e+00
  %add = fadd double %_nu, 1.000000e+01
  %0 = tail call double @llvm.fmuladd.f64(double %mul, double %add, double %call.i)
  %call.i27 = tail call noundef double @pow(double noundef %_lambda, double noundef 4.000000e+00) #35, !tbaa !57
  %mul4 = fmul double %call.i27, 1.500000e+01
  %1 = tail call double @llvm.fmuladd.f64(double %_nu, double 1.800000e+01, double 8.000000e+01)
  %square = fmul double %_nu, %_nu
  %add7 = fadd double %1, %square
  %2 = tail call double @llvm.fmuladd.f64(double %mul4, double %add7, double %0)
  %call.i29 = tail call noundef double @pow(double noundef %_lambda, double noundef 3.000000e+00) #35, !tbaa !57
  %mul10 = fmul double %call.i29, 2.000000e+01
  %3 = tail call double @llvm.fmuladd.f64(double %_nu, double 1.880000e+02, double 4.800000e+02)
  %4 = tail call double @llvm.fmuladd.f64(double %square, double 2.400000e+01, double %3)
  %call.i31 = tail call noundef double @pow(double noundef %_nu, double noundef 3.000000e+00) #35, !tbaa !57
  %add15 = fadd double %4, %call.i31
  %5 = tail call double @llvm.fmuladd.f64(double %mul10, double %add15, double %2)
  %square45 = fmul double %_lambda, %_lambda
  %mul18 = fmul double %square45, 1.500000e+01
  %6 = tail call double @llvm.fmuladd.f64(double %_nu, double 1.232000e+03, double 1.920000e+03)
  %7 = tail call double @llvm.fmuladd.f64(double %square, double 2.840000e+02, double %6)
  %call.i34 = tail call noundef double @pow(double noundef %_nu, double noundef 3.000000e+00) #35, !tbaa !57
  %8 = tail call double @llvm.fmuladd.f64(double %call.i34, double 2.800000e+01, double %7)
  %call.i35 = tail call noundef double @pow(double noundef %_nu, double noundef 4.000000e+00) #35, !tbaa !57
  %add25 = fadd double %8, %call.i35
  %9 = tail call double @llvm.fmuladd.f64(double %mul18, double %add25, double %5)
  %mul27 = fmul double %_lambda, 6.000000e+00
  %10 = tail call double @llvm.fmuladd.f64(double %_nu, double 4.384000e+03, double 3.840000e+03)
  %11 = tail call double @llvm.fmuladd.f64(double %square, double 1.800000e+03, double %10)
  %call.i37 = tail call noundef double @pow(double noundef %_nu, double noundef 3.000000e+00) #35, !tbaa !57
  %12 = tail call double @llvm.fmuladd.f64(double %call.i37, double 3.400000e+02, double %11)
  %call.i38 = tail call noundef double @pow(double noundef %_nu, double noundef 4.000000e+00) #35, !tbaa !57
  %13 = tail call double @llvm.fmuladd.f64(double %call.i38, double 3.000000e+01, double %12)
  %call.i39 = tail call noundef double @pow(double noundef %_nu, double noundef 5.000000e+00) #35, !tbaa !57
  %add36 = fadd double %13, %call.i39
  %14 = tail call double @llvm.fmuladd.f64(double %mul27, double %add36, double %9)
  %call.i41 = tail call noundef double @pow(double noundef %_nu, double noundef 3.000000e+00) #35, !tbaa !57
  %15 = tail call double @llvm.fmuladd.f64(double %call.i41, double 3.400000e+02, double %11)
  %call.i42 = tail call noundef double @pow(double noundef %_nu, double noundef 4.000000e+00) #35, !tbaa !57
  %16 = tail call double @llvm.fmuladd.f64(double %call.i42, double 3.000000e+01, double %15)
  %call.i43 = tail call noundef double @pow(double noundef %_nu, double noundef 5.000000e+00) #35, !tbaa !57
  %add46 = fadd double %16, %call.i43
  %17 = tail call double @llvm.fmuladd.f64(double %_nu, double %add46, double %14)
  ret double %17
}